target datalayout = "e-m:e-p270:32:32-p271:32:32-p272:64:64-i64:64-i128:128-f80:128-n8:16:32:64-S128"
target triple = "x86_64-pc-linux-gnu"

%"class.open_spiel::dots_and_boxes::Move" = type { i32, i32, i32, i32, i32 }

; Function Attrs: mustprogress nounwind uwtable
define noundef i64 @_ZN10open_spiel14dots_and_boxes4Move8ActionIdEv(ptr noundef nonnull align 4 dereferenceable(20) %0) #5 align 2 {
  %2 = alloca ptr, align 8
  %3 = alloca i64, align 8
  %4 = alloca i32, align 4
  store ptr %0, ptr %2, align 8
  %5 = load ptr, ptr %2, align 8
  store i64 0, ptr %3, align 8
  %6 = getelementptr inbounds nuw %"class.open_spiel::dots_and_boxes::Move", ptr %5, i32 0, i32 3
  %7 = load i32, ptr %6, align 4
  %8 = add nsw i32 %7, 1
  %9 = getelementptr inbounds nuw %"class.open_spiel::dots_and_boxes::Move", ptr %5, i32 0, i32 4
  %10 = load i32, ptr %9, align 4
  %11 = mul nsw i32 %8, %10
  store i32 %11, ptr %4, align 4
  %12 = getelementptr inbounds nuw %"class.open_spiel::dots_and_boxes::Move", ptr %5, i32 0, i32 2
  %13 = load i32, ptr %12, align 4
  %14 = icmp eq i32 %13, 0
  br i1 %14, label %15, label %25

15:                                               ; preds = %1
  %16 = getelementptr inbounds nuw %"class.open_spiel::dots_and_boxes::Move", ptr %5, i32 0, i32 0
  %17 = load i32, ptr %16, align 4
  %18 = getelementptr inbounds nuw %"class.open_spiel::dots_and_boxes::Move", ptr %5, i32 0, i32 4
  %19 = load i32, ptr %18, align 4
  %20 = mul nsw i32 %17, %19
  %21 = getelementptr inbounds nuw %"class.open_spiel::dots_and_boxes::Move", ptr %5, i32 0, i32 1
  %22 = load i32, ptr %21, align 4
  %23 = add nsw i32 %20, %22
  %24 = sext i32 %23 to i64
  store i64 %24, ptr %3, align 8
  br label %38

25:                                               ; preds = %1
  %26 = load i32, ptr %4, align 4
  %27 = getelementptr inbounds nuw %"class.open_spiel::dots_and_boxes::Move", ptr %5, i32 0, i32 0
  %28 = load i32, ptr %27, align 4
  %29 = getelementptr inbounds nuw %"class.open_spiel::dots_and_boxes::Move", ptr %5, i32 0, i32 4
  %30 = load i32, ptr %29, align 4
  %31 = add nsw i32 %30, 1
  %32 = mul nsw i32 %28, %31
  %33 = add nsw i32 %26, %32
  %34 = getelementptr inbounds nuw %"class.open_spiel::dots_and_boxes::Move", ptr %5, i32 0, i32 1
  %35 = load i32, ptr %34, align 4
  %36 = add nsw i32 %33, %35
  %37 = sext i32 %36 to i64
  store i64 %37, ptr %3, align 8
  br label %38

38:                                               ; preds = %25, %15
  %39 = load i64, ptr %3, align 8
  ret i64 %39
}