; Function Attrs: mustprogress nofree norecurse nosync nounwind willreturn memory(argmem: read) uwtable
define noundef range(i64 -2147483648, 2147483648) i64 @_ZN10open_spiel14dots_and_boxes4Move8ActionIdEv(ptr nocapture noundef nonnull readonly align 4 dereferenceable(20) %0) local_unnamed_addr #7 align 2 {
  %2 = getelementptr inbounds nuw i8, ptr %0, i64 16
  %3 = load i32, ptr %2, align 4
  %4 = getelementptr inbounds nuw i8, ptr %0, i64 8
  %5 = load i32, ptr %4, align 4
  %6 = icmp eq i32 %5, 0
  br i1 %6, label %7, label %10

7:                                                ; preds = %1
  %8 = load i32, ptr %0, align 4
  %9 = mul nsw i32 %8, %3
  br label %19

10:                                               ; preds = %1
  %11 = getelementptr inbounds nuw i8, ptr %0, i64 12
  %12 = load i32, ptr %11, align 4
  %13 = add nsw i32 %12, 1
  %14 = mul nsw i32 %13, %3
  %15 = load i32, ptr %0, align 4
  %16 = add nsw i32 %3, 1
  %17 = mul nsw i32 %15, %16
  %18 = add nsw i32 %14, %17
  br label %19

19:                                               ; preds = %10, %7
  %.sink = phi i32 [ %18, %10 ], [ %9, %7 ]
  %20 = getelementptr inbounds nuw i8, ptr %0, i64 4
  %21 = load i32, ptr %20, align 4
  %22 = add nsw i32 %.sink, %21
  %.0 = sext i32 %22 to i64
  ret i64 %.0
}